Certificate:
    Data:
        Version: 3 (0x2)
        Serial Number: 2 (0x2)
        Signature Algorithm: sha256WithRSAEncryption
        Issuer: C=br, ST=MG, L=Barbacena, O=TSI, OU=radioWeb, CN=10.8.0.4/emailAddress=josefelixduarte26@gmail.com
        Validity
            Not Before: Aug 30 19:37:51 2021 GMT
            Not After : Aug 30 19:37:51 2022 GMT
        Subject: C=br, ST=MG, O=TSI, OU=radioWeb, CN=10.8.0.4/emailAddress=josefelixduarte26@gmail.com
        Subject Public Key Info:
            Public Key Algorithm: rsaEncryption
                RSA Public-Key: (2048 bit)
                Modulus:
                    00:b6:b9:2c:0b:ce:9e:53:b4:9e:98:a9:95:91:94:
                    43:b9:41:5d:d5:95:56:46:90:61:75:30:f2:29:df:
                    7e:41:78:fd:6a:0f:e6:78:06:d4:cb:1a:8a:71:38:
                    aa:00:36:87:69:ba:8c:c6:61:6b:3c:91:19:d6:59:
                    0f:10:c4:0b:61:eb:83:0b:f2:9b:4c:c2:6d:ec:61:
                    86:5e:77:de:6e:76:f3:d6:83:af:6b:93:50:9b:91:
                    b0:42:91:db:ec:a8:e5:2e:28:37:06:99:a4:3f:33:
                    e6:fe:92:57:f6:0c:cc:31:79:4f:43:ea:a5:04:da:
                    8d:bb:14:12:11:94:2b:c6:6a:7b:3d:03:bd:e2:9a:
                    67:e6:76:95:c5:97:8e:f6:b6:4b:f8:dc:9e:20:bf:
                    07:76:b6:e0:d3:a4:03:57:0f:bc:d3:9c:94:95:8b:
                    87:67:5d:68:d2:38:90:ab:68:1e:69:58:f6:53:3d:
                    90:8b:64:3a:8a:05:fd:02:4d:8b:90:9b:32:72:62:
                    76:91:58:52:76:1c:2f:b4:51:26:92:c1:39:8a:54:
                    bb:82:a9:62:16:d4:7f:8f:20:e6:cc:af:b8:07:1b:
                    57:b6:b1:a3:6e:f1:23:c2:90:d0:40:33:33:63:51:
                    26:17:8b:94:92:54:80:11:50:4b:7e:e1:a0:d8:bf:
                    d3:49
                Exponent: 65537 (0x10001)
        X509v3 extensions:
            X509v3 Basic Constraints: 
                CA:FALSE
            X509v3 Subject Key Identifier: 
                40:CB:20:00:8B:B8:3C:BE:AF:94:A4:44:5A:1B:A7:91:D9:2E:CC:02
            X509v3 Authority Key Identifier: 
                keyid:12:AC:19:3F:E3:B9:B6:DB:E5:AA:DC:31:3C:E5:E2:E9:D0:E9:40:09

    Signature Algorithm: sha256WithRSAEncryption
         88:20:c7:4d:67:ca:9f:d8:cb:27:9d:48:4f:7f:ab:71:68:80:
         55:13:31:4b:4a:f8:68:a6:e0:eb:8e:1c:a1:a8:31:70:1b:a7:
         7c:d4:a9:0a:c4:98:3a:89:78:34:41:d5:a3:a5:d3:3a:89:cd:
         b5:85:1b:3a:1b:79:c8:87:ef:cf:25:b1:19:df:66:b6:fc:82:
         05:8e:cc:06:83:f1:36:98:d6:a7:e7:22:22:54:32:ba:98:18:
         96:b7:f6:c6:bf:40:ac:3a:54:31:79:cd:29:ed:94:79:a8:8b:
         a2:5e:99:d5:db:6d:68:bc:14:fb:d0:91:e1:d3:4c:0e:2d:b8:
         8f:cb:80:74:d4:f0:d2:0b:2c:b8:a4:ab:f0:12:51:fa:f7:59:
         3a:a1:cf:04:60:3f:6b:d2:d5:76:85:ad:ae:b1:29:ac:ee:24:
         4f:5e:e1:d5:69:5f:ee:8c:29:0d:c1:24:e7:ae:4d:78:65:f4:
         c5:5a:0c:ea:fd:28:6a:c0:ac:97:32:28:e8:24:df:b8:29:27:
         0c:e9:5c:69:6c:a5:0a:dc:27:a5:a1:b6:b5:dc:d7:11:f5:65:
         16:c0:e3:df:0c:6c:d5:b6:30:6d:6f:77:c5:81:8a:53:ae:ff:
         ac:d1:b4:e5:9f:34:12:a9:80:de:84:68:2d:a7:25:ed:d4:fc:
         d2:ed:27:b7
-----BEGIN CERTIFICATE-----
MIID0TCCArmgAwIBAgIBAjANBgkqhkiG9w0BAQsFADCBjjELMAkGA1UEBhMCYnIx
CzAJBgNVBAgMAk1HMRIwEAYDVQQHDAlCYXJiYWNlbmExDDAKBgNVBAoMA1RTSTER
MA8GA1UECwwIcmFkaW9XZWIxETAPBgNVBAMMCDEwLjguMC40MSowKAYJKoZIhvcN
AQkBFhtqb3NlZmVsaXhkdWFydGUyNkBnbWFpbC5jb20wHhcNMjEwODMwMTkzNzUx
WhcNMjIwODMwMTkzNzUxWjB6MQswCQYDVQQGEwJicjELMAkGA1UECAwCTUcxDDAK
BgNVBAoMA1RTSTERMA8GA1UECwwIcmFkaW9XZWIxETAPBgNVBAMMCDEwLjguMC40
MSowKAYJKoZIhvcNAQkBFhtqb3NlZmVsaXhkdWFydGUyNkBnbWFpbC5jb20wggEi
MA0GCSqGSIb3DQEBAQUAA4IBDwAwggEKAoIBAQC2uSwLzp5TtJ6YqZWRlEO5QV3V
lVZGkGF1MPIp335BeP1qD+Z4BtTLGopxOKoANodpuozGYWs8kRnWWQ8QxAth64ML
8ptMwm3sYYZed95udvPWg69rk1CbkbBCkdvsqOUuKDcGmaQ/M+b+klf2DMwxeU9D
6qUE2o27FBIRlCvGans9A73immfmdpXFl472tkv43J4gvwd2tuDTpANXD7zTnJSV
i4dnXWjSOJCraB5pWPZTPZCLZDqKBf0CTYuQmzJyYnaRWFJ2HC+0USaSwTmKVLuC
qWIW1H+PIObMr7gHG1e2saNu8SPCkNBAMzNjUSYXi5SSVIARUEt+4aDYv9NJAgMB
AAGjTTBLMAkGA1UdEwQCMAAwHQYDVR0OBBYEFEDLIACLuDy+r5SkRFobp5HZLswC
MB8GA1UdIwQYMBaAFBKsGT/jubbb5arcMTzl4unQ6UAJMA0GCSqGSIb3DQEBCwUA
A4IBAQCIIMdNZ8qf2MsnnUhPf6txaIBVEzFLSvhopuDrjhyhqDFwG6d81KkKxJg6
iXg0QdWjpdM6ic21hRs6G3nIh+/PJbEZ32a2/IIFjswGg/E2mNan5yIiVDK6mBiW
t/bGv0CsOlQxec0p7ZR5qIuiXpnV221ovBT70JHh00wOLbiPy4B01PDSCyy4pKvw
ElH691k6oc8EYD9r0tV2ha2usSms7iRPXuHVaV/ujCkNwSTnrk14ZfTFWgzq/Shq
wKyXMijoJN+4KScM6VxpbKUK3Celoba13NcR9WUWwOPfDGzVtjBtb3fFgYpTrv+s
0bTlnzQSqYDehGgtpyXt1PzS7Se3
-----END CERTIFICATE-----
