Certificate:
    Data:
        Version: 3 (0x2)
        Serial Number: 2 (0x2)
        Signature Algorithm: sha256WithRSAEncryption
        Issuer: C=br, ST=Minas Gerais, L=Barbacena, O=TSI, OU=radioWeb, CN=Jos\xC3\x83\xC2\xA9 F\xC3\x83\xC2\xA9lix/emailAddress=josefelixduarte26@gmail.com
        Validity
            Not Before: Aug 28 01:45:11 2021 GMT
            Not After : Aug 28 01:45:11 2022 GMT
        Subject: C=br, ST=Minas Gerais, O=TSI, OU=radioWeb, CN=Jos\xC3\x83\xC2\xA9 F\xC3\x83\xC2\xA9lix/emailAddress=josefelixduarte26@gmail.com
        Subject Public Key Info:
            Public Key Algorithm: rsaEncryption
                RSA Public-Key: (2048 bit)
                Modulus:
                    00:d6:0c:36:e6:01:db:c4:36:9c:8d:f3:2c:9f:53:
                    88:3d:c4:51:87:dc:62:06:dd:30:ce:f2:e7:de:21:
                    cc:e1:65:11:16:d7:76:c7:55:1b:d0:05:cb:81:f1:
                    84:0a:de:5f:b6:a3:5d:f9:db:1f:54:fc:5a:7f:5a:
                    7f:74:33:58:7e:41:ec:40:6e:56:b8:a9:32:bb:78:
                    76:0a:04:95:98:99:aa:e6:2d:be:ea:83:d6:28:9a:
                    9e:82:c2:42:b8:27:47:b5:36:56:dd:14:87:ac:2c:
                    b0:79:91:e0:6b:21:00:d9:09:a4:7d:96:83:d2:d1:
                    c6:41:61:85:27:b4:b7:48:85:fd:f4:27:95:6d:68:
                    f9:8d:50:f0:4c:00:c0:76:aa:a3:e3:80:04:54:ef:
                    01:e2:ac:f0:e1:36:32:96:66:5c:07:b1:eb:3f:cf:
                    9f:91:b6:06:ee:6a:0c:4a:40:e2:55:1d:a0:18:00:
                    41:37:ae:c8:c0:1f:96:5b:db:09:f3:f2:00:6f:7a:
                    c8:9b:a9:ec:43:78:29:eb:61:b1:a3:da:91:3a:b8:
                    8e:4f:bf:a0:b1:e6:85:c0:2e:ee:38:eb:e0:5a:2c:
                    f4:58:2d:12:88:74:19:13:a9:8f:d7:db:91:00:3e:
                    01:10:ef:98:8a:18:9f:11:20:18:d8:09:54:ab:53:
                    67:37
                Exponent: 65537 (0x10001)
        X509v3 extensions:
            X509v3 Basic Constraints: 
                CA:FALSE
            X509v3 Subject Key Identifier: 
                7B:FE:06:4C:B8:D6:EE:DA:15:59:EF:56:A7:96:C5:59:55:64:4B:ED
            X509v3 Authority Key Identifier: 
                keyid:C0:CB:34:93:18:3E:E9:C9:5B:7E:55:FB:88:A8:E6:ED:74:F1:D5:B9

    Signature Algorithm: sha256WithRSAEncryption
         3e:f5:ca:34:fe:6f:81:e6:ae:be:cb:84:95:a2:d2:59:12:f1:
         25:29:92:fa:ca:7f:9a:d0:e4:d1:63:54:e2:f1:fe:2b:e2:29:
         ef:bf:5a:df:60:8c:39:28:fd:a6:bd:f4:66:be:f9:ef:97:23:
         45:f9:6e:0f:cd:99:3c:b4:08:1d:69:1f:1e:d2:3e:ad:6e:c2:
         24:e3:eb:94:c6:f7:55:dd:b8:0e:9b:e4:f9:f2:11:67:99:26:
         6d:4e:80:06:57:f8:ef:b8:e0:7e:1d:c1:e5:8f:69:3c:db:94:
         f5:00:ff:0e:4b:81:2d:ae:92:5c:ec:96:a3:50:9f:6d:a1:ff:
         c6:fe:39:3c:56:15:d0:93:7d:b6:55:04:42:f1:6f:72:22:f5:
         28:6f:15:5b:fc:ca:11:9c:99:b5:f4:ef:ac:da:35:0e:39:24:
         4b:9f:4d:51:e9:88:8a:87:ca:98:70:f2:07:71:e5:60:35:46:
         bf:54:40:9b:41:bb:5e:16:ae:49:14:0d:46:5a:07:d7:a8:17:
         0a:ba:b8:ec:1d:2f:46:0d:a2:86:ff:13:81:b0:0f:a3:35:3e:
         6f:ba:c0:ac:da:64:b2:c8:67:47:9d:e8:d6:6f:fb:71:bc:84:
         4b:14:ee:9d:44:81:79:50:0e:cd:34:19:81:e3:36:8e:9b:db:
         36:c3:f8:97
-----BEGIN CERTIFICATE-----
MIID9jCCAt6gAwIBAgIBAjANBgkqhkiG9w0BAQsFADCBoDELMAkGA1UEBhMCYnIx
FTATBgNVBAgMDE1pbmFzIEdlcmFpczESMBAGA1UEBwwJQmFyYmFjZW5hMQwwCgYD
VQQKDANUU0kxETAPBgNVBAsMCHJhZGlvV2ViMRkwFwYDVQQDDBBKb3PDg8KpIEbD
g8KpbGl4MSowKAYJKoZIhvcNAQkBFhtqb3NlZmVsaXhkdWFydGUyNkBnbWFpbC5j
b20wHhcNMjEwODI4MDE0NTExWhcNMjIwODI4MDE0NTExWjCBjDELMAkGA1UEBhMC
YnIxFTATBgNVBAgMDE1pbmFzIEdlcmFpczEMMAoGA1UECgwDVFNJMREwDwYDVQQL
DAhyYWRpb1dlYjEZMBcGA1UEAwwQSm9zw4PCqSBGw4PCqWxpeDEqMCgGCSqGSIb3
DQEJARYbam9zZWZlbGl4ZHVhcnRlMjZAZ21haWwuY29tMIIBIjANBgkqhkiG9w0B
AQEFAAOCAQ8AMIIBCgKCAQEA1gw25gHbxDacjfMsn1OIPcRRh9xiBt0wzvLn3iHM
4WURFtd2x1Ub0AXLgfGECt5ftqNd+dsfVPxaf1p/dDNYfkHsQG5WuKkyu3h2CgSV
mJmq5i2+6oPWKJqegsJCuCdHtTZW3RSHrCyweZHgayEA2QmkfZaD0tHGQWGFJ7S3
SIX99CeVbWj5jVDwTADAdqqj44AEVO8B4qzw4TYylmZcB7HrP8+fkbYG7moMSkDi
VR2gGABBN67IwB+WW9sJ8/IAb3rIm6nsQ3gp62Gxo9qROriOT7+gseaFwC7uOOvg
Wiz0WC0SiHQZE6mP19uRAD4BEO+YihifESAY2AlUq1NnNwIDAQABo00wSzAJBgNV
HRMEAjAAMB0GA1UdDgQWBBR7/gZMuNbu2hVZ71anlsVZVWRL7TAfBgNVHSMEGDAW
gBTAyzSTGD7pyVt+VfuIqObtdPHVuTANBgkqhkiG9w0BAQsFAAOCAQEAPvXKNP5v
geauvsuElaLSWRLxJSmS+sp/mtDk0WNU4vH+K+Ip779a32CMOSj9pr30Zr7575cj
RfluD82ZPLQIHWkfHtI+rW7CJOPrlMb3Vd24Dpvk+fIRZ5kmbU6ABlf477jgfh3B
5Y9pPNuU9QD/DkuBLa6SXOyWo1CfbaH/xv45PFYV0JN9tlUEQvFvciL1KG8VW/zK
EZyZtfTvrNo1DjkkS59NUemIiofKmHDyB3HlYDVGv1RAm0G7XhauSRQNRloH16gX
Crq47B0vRg2ihv8TgbAPozU+b7rArNpksshnR53o1m/7cbyESxTunUSBeVAOzTQZ
geM2jpvbNsP4lw==
-----END CERTIFICATE-----
