Certificate:
    Data:
        Version: 3 (0x2)
        Serial Number: 2 (0x2)
        Signature Algorithm: sha256WithRSAEncryption
        Issuer: C=br, ST=Minas Gerais, L=Barbacena, O=TSI, OU=radioWeb, CN=Jos\xC3\x83\xC2\xA9 F\xC3\x83\xC2\xA9lix/emailAddress=josefelixduarte26@gmail.com
        Validity
            Not Before: Aug 28 02:42:21 2021 GMT
            Not After : Aug 28 02:42:21 2022 GMT
        Subject: C=br, ST=Minas Gerais, O=TSI, OU=radioWeb, CN=Jos\xC3\x83\xC2\xA9 F\xC3\x83\xC2\xA9lix/emailAddress=josefelixduarte26@gmail.com
        Subject Public Key Info:
            Public Key Algorithm: rsaEncryption
                RSA Public-Key: (2048 bit)
                Modulus:
                    00:96:83:58:3c:38:93:5c:d2:8c:1f:59:3d:7f:5d:
                    d1:02:fb:13:b6:1d:50:99:fe:12:8a:4b:93:84:bc:
                    0a:bd:f7:cd:49:87:cd:07:37:e0:31:d8:de:c3:df:
                    20:ed:f4:c1:94:02:95:fe:e2:e4:a5:8d:28:84:80:
                    f7:a2:ae:90:94:cd:6c:2d:8c:5c:4c:19:fc:90:08:
                    2a:d5:bd:4e:c3:93:55:f3:3c:4e:31:4f:37:19:3b:
                    47:f2:f4:f0:b4:c3:5a:82:c8:24:0c:a5:c2:d2:00:
                    20:6a:64:2f:26:17:b4:e6:29:d6:1a:42:fb:e3:9e:
                    c2:6d:66:96:66:4e:cf:fa:1d:85:a2:fc:c7:f4:fd:
                    b8:31:82:3d:6c:0d:cc:a1:d3:27:3c:ae:a8:a3:99:
                    9c:62:9f:7b:08:29:f5:c7:be:1a:8f:e3:84:06:9b:
                    a1:50:4c:ef:e0:aa:7f:08:2c:04:ae:e4:53:2a:28:
                    eb:a0:03:b6:4d:cd:5c:fc:7c:f3:20:02:57:16:d0:
                    64:94:63:3f:bc:2c:65:77:2a:f3:b7:c2:c4:4e:36:
                    94:37:66:65:3d:3c:92:4c:f1:8c:eb:66:c1:1e:e9:
                    14:24:c9:80:d6:b0:bc:bd:01:dd:c6:dd:28:81:9a:
                    55:df:42:5a:0b:94:17:7b:f2:7b:ad:f2:ec:df:f4:
                    6b:5b
                Exponent: 65537 (0x10001)
        X509v3 extensions:
            X509v3 Basic Constraints: 
                CA:FALSE
            X509v3 Subject Key Identifier: 
                9F:1B:27:AF:0C:8B:B8:68:05:78:64:6E:4E:95:EF:50:BD:A3:30:27
            X509v3 Authority Key Identifier: 
                keyid:9A:12:F6:5D:B6:E3:13:2D:7B:15:DF:69:18:B0:8F:AA:8F:D3:0A:3C

    Signature Algorithm: sha256WithRSAEncryption
         a7:c6:fc:7e:e9:ca:d1:59:e5:ef:3d:63:73:88:48:ff:18:27:
         0d:93:a6:0e:83:ac:53:bc:d0:81:d7:b8:85:29:fc:86:80:34:
         9c:72:80:7c:6b:b0:8b:91:63:b7:40:59:bb:d9:13:cd:17:e2:
         90:c7:06:1e:76:c6:fb:52:80:ee:61:37:ac:46:8b:a1:ee:36:
         d3:ca:9f:00:bf:d4:4a:fb:6f:1b:f5:d7:48:cb:72:bf:d7:de:
         e3:61:01:5e:8e:19:49:1b:34:25:33:b9:3b:80:b2:72:fc:ec:
         ae:1c:55:ae:66:73:03:04:6b:de:48:95:19:0a:c1:e7:8a:95:
         b6:0d:2b:41:53:66:3d:2f:6b:f6:0d:ef:69:dd:88:66:25:46:
         43:3b:f3:c5:57:a3:b9:e4:c9:8d:b5:f9:f5:02:6a:e6:48:91:
         18:a8:91:01:34:c6:bd:49:78:b8:40:b0:93:c1:81:82:b2:05:
         fe:77:b5:03:88:d9:94:b0:a3:7c:62:25:01:47:67:b2:fe:45:
         79:a9:07:71:22:69:8b:be:e9:98:b2:04:de:c2:ca:9d:75:cf:
         10:95:60:df:7a:28:93:1d:ec:e5:5b:66:60:68:b4:26:12:59:
         03:7b:b0:31:b4:f5:a5:95:fa:ec:a1:a2:5c:87:38:a8:ad:da:
         ea:6a:d8:ac
-----BEGIN CERTIFICATE-----
MIID9jCCAt6gAwIBAgIBAjANBgkqhkiG9w0BAQsFADCBoDELMAkGA1UEBhMCYnIx
FTATBgNVBAgMDE1pbmFzIEdlcmFpczESMBAGA1UEBwwJQmFyYmFjZW5hMQwwCgYD
VQQKDANUU0kxETAPBgNVBAsMCHJhZGlvV2ViMRkwFwYDVQQDDBBKb3PDg8KpIEbD
g8KpbGl4MSowKAYJKoZIhvcNAQkBFhtqb3NlZmVsaXhkdWFydGUyNkBnbWFpbC5j
b20wHhcNMjEwODI4MDI0MjIxWhcNMjIwODI4MDI0MjIxWjCBjDELMAkGA1UEBhMC
YnIxFTATBgNVBAgMDE1pbmFzIEdlcmFpczEMMAoGA1UECgwDVFNJMREwDwYDVQQL
DAhyYWRpb1dlYjEZMBcGA1UEAwwQSm9zw4PCqSBGw4PCqWxpeDEqMCgGCSqGSIb3
DQEJARYbam9zZWZlbGl4ZHVhcnRlMjZAZ21haWwuY29tMIIBIjANBgkqhkiG9w0B
AQEFAAOCAQ8AMIIBCgKCAQEAloNYPDiTXNKMH1k9f13RAvsTth1Qmf4SikuThLwK
vffNSYfNBzfgMdjew98g7fTBlAKV/uLkpY0ohID3oq6QlM1sLYxcTBn8kAgq1b1O
w5NV8zxOMU83GTtH8vTwtMNagsgkDKXC0gAgamQvJhe05inWGkL7457CbWaWZk7P
+h2FovzH9P24MYI9bA3ModMnPK6oo5mcYp97CCn1x74aj+OEBpuhUEzv4Kp/CCwE
ruRTKijroAO2Tc1c/HzzIAJXFtBklGM/vCxldyrzt8LETjaUN2ZlPTySTPGM62bB
HukUJMmA1rC8vQHdxt0ogZpV30JaC5QXe/J7rfLs3/RrWwIDAQABo00wSzAJBgNV
HRMEAjAAMB0GA1UdDgQWBBSfGyevDIu4aAV4ZG5Ole9QvaMwJzAfBgNVHSMEGDAW
gBSaEvZdtuMTLXsV32kYsI+qj9MKPDANBgkqhkiG9w0BAQsFAAOCAQEAp8b8funK
0Vnl7z1jc4hI/xgnDZOmDoOsU7zQgde4hSn8hoA0nHKAfGuwi5Fjt0BZu9kTzRfi
kMcGHnbG+1KA7mE3rEaLoe4208qfAL/USvtvG/XXSMtyv9fe42EBXo4ZSRs0JTO5
O4CycvzsrhxVrmZzAwRr3kiVGQrB54qVtg0rQVNmPS9r9g3vad2IZiVGQzvzxVej
ueTJjbX59QJq5kiRGKiRATTGvUl4uECwk8GBgrIF/ne1A4jZlLCjfGIlAUdnsv5F
eakHcSJpi77pmLIE3sLKnXXPEJVg33ookx3s5VtmYGi0JhJZA3uwMbT1pZX67KGi
XIc4qK3a6mrYrA==
-----END CERTIFICATE-----
