Certificate:
    Data:
        Version: 3 (0x2)
        Serial Number: 2 (0x2)
        Signature Algorithm: sha256WithRSAEncryption
        Issuer: C=br, ST=Minas Gerais, L=Barbacena, O=TSI, OU=radioWeb, CN=Jos\xC3\x83\xC2\xA9 F\xC3\x83\xC2\xA9lix/emailAddress=josefelixduarte26@gmail.com
        Validity
            Not Before: Aug 28 15:34:02 2021 GMT
            Not After : Aug 28 15:34:02 2022 GMT
        Subject: C=br, ST=Minas Gerais, O=TSI, OU=radioWeb, CN=Jos\xC3\x83\xC2\xA9 F\xC3\x83\xC2\xA9lix/emailAddress=josefelixduarte26@gmail.com
        Subject Public Key Info:
            Public Key Algorithm: rsaEncryption
                RSA Public-Key: (2048 bit)
                Modulus:
                    00:b9:59:22:88:bb:40:5f:06:18:80:2d:41:27:ff:
                    a4:7b:bc:06:d3:bb:95:8e:b8:bb:12:82:13:1b:eb:
                    18:70:78:1b:e6:9b:6e:4a:80:49:a4:a3:2a:d8:42:
                    03:4a:16:19:3d:8a:cd:fa:c4:8c:3a:2d:14:66:01:
                    07:5c:45:a1:b5:21:47:fc:be:51:4d:df:49:56:8e:
                    1a:15:08:6c:f2:31:7d:b0:e7:83:9e:69:b8:df:c6:
                    a1:12:3c:28:20:2a:46:c7:a8:df:be:29:4e:66:e7:
                    ff:d0:87:be:17:1b:3e:5d:5e:c2:90:c3:c8:78:43:
                    3f:14:c1:d5:fe:72:e7:1d:1f:47:e1:b6:f6:14:f8:
                    1d:db:c4:68:82:42:08:81:27:9b:e4:4d:f1:ee:72:
                    ee:0f:1d:e3:66:68:26:6c:b1:15:a4:df:e9:08:82:
                    81:43:59:dc:b8:02:2d:19:d0:11:70:06:d0:f2:3c:
                    c9:3f:89:af:56:ef:bb:d4:f0:f8:3d:98:b4:29:32:
                    e2:4d:05:eb:9d:28:72:9d:93:d5:a3:da:02:ec:10:
                    02:b7:19:20:7d:53:fa:fd:e2:ff:b3:1f:16:8b:9f:
                    6c:19:f8:db:78:7f:3f:52:48:c4:09:ba:68:6b:b3:
                    7c:a3:13:4b:94:0c:81:6b:df:dd:a2:9a:49:96:bf:
                    7d:fd
                Exponent: 65537 (0x10001)
        X509v3 extensions:
            X509v3 Basic Constraints: 
                CA:FALSE
            X509v3 Subject Key Identifier: 
                0B:75:D1:CA:47:C1:98:2B:05:D2:82:A3:3A:C1:00:6A:B8:50:27:07
            X509v3 Authority Key Identifier: 
                keyid:AA:09:FC:9B:85:F9:29:00:B9:A3:CC:60:61:32:36:76:82:99:94:39

    Signature Algorithm: sha256WithRSAEncryption
         09:53:5c:91:44:04:9a:6a:57:9c:7c:4d:de:8a:54:7b:a6:02:
         48:00:42:62:3e:74:af:9e:ba:d2:f7:86:0a:0d:dd:0b:17:80:
         3e:92:a8:fd:21:44:5f:1c:80:0c:1e:b2:99:a2:b5:bb:3c:09:
         bc:73:89:d1:75:05:7b:73:dc:b3:76:21:56:5d:01:8e:79:b0:
         2f:14:c4:1f:20:40:1d:98:e9:08:fd:ce:6e:bd:09:54:19:aa:
         ca:61:25:54:95:6d:d0:f9:9a:3f:ee:8a:91:dc:7e:08:19:6d:
         c8:db:02:df:6b:25:9f:72:58:7d:e9:47:62:93:1b:4e:bc:d5:
         f6:0a:32:06:11:4c:1f:fd:4e:fd:59:0f:fd:54:f8:7d:c1:93:
         4c:68:95:e7:6c:56:e9:90:46:fe:a9:bb:05:37:e3:56:9f:53:
         a5:06:51:e5:72:49:24:7a:16:21:04:e8:01:be:34:81:6a:26:
         c6:c5:3d:41:02:89:8a:11:3e:46:e5:26:c6:03:78:fc:a3:45:
         eb:4d:0d:54:db:cd:7d:ed:26:9b:e1:0d:77:53:fa:2a:18:a0:
         46:d3:f9:fe:30:b0:61:0b:a4:cc:47:9d:88:a6:1f:5f:f0:e5:
         0d:ec:2a:d0:2d:91:7a:b7:af:e6:74:a0:91:80:2a:b3:45:45:
         d3:62:05:f2
-----BEGIN CERTIFICATE-----
MIID9jCCAt6gAwIBAgIBAjANBgkqhkiG9w0BAQsFADCBoDELMAkGA1UEBhMCYnIx
FTATBgNVBAgMDE1pbmFzIEdlcmFpczESMBAGA1UEBwwJQmFyYmFjZW5hMQwwCgYD
VQQKDANUU0kxETAPBgNVBAsMCHJhZGlvV2ViMRkwFwYDVQQDDBBKb3PDg8KpIEbD
g8KpbGl4MSowKAYJKoZIhvcNAQkBFhtqb3NlZmVsaXhkdWFydGUyNkBnbWFpbC5j
b20wHhcNMjEwODI4MTUzNDAyWhcNMjIwODI4MTUzNDAyWjCBjDELMAkGA1UEBhMC
YnIxFTATBgNVBAgMDE1pbmFzIEdlcmFpczEMMAoGA1UECgwDVFNJMREwDwYDVQQL
DAhyYWRpb1dlYjEZMBcGA1UEAwwQSm9zw4PCqSBGw4PCqWxpeDEqMCgGCSqGSIb3
DQEJARYbam9zZWZlbGl4ZHVhcnRlMjZAZ21haWwuY29tMIIBIjANBgkqhkiG9w0B
AQEFAAOCAQ8AMIIBCgKCAQEAuVkiiLtAXwYYgC1BJ/+ke7wG07uVjri7EoITG+sY
cHgb5ptuSoBJpKMq2EIDShYZPYrN+sSMOi0UZgEHXEWhtSFH/L5RTd9JVo4aFQhs
8jF9sOeDnmm438ahEjwoICpGx6jfvilOZuf/0Ie+Fxs+XV7CkMPIeEM/FMHV/nLn
HR9H4bb2FPgd28RogkIIgSeb5E3x7nLuDx3jZmgmbLEVpN/pCIKBQ1ncuAItGdAR
cAbQ8jzJP4mvVu+71PD4PZi0KTLiTQXrnShynZPVo9oC7BACtxkgfVP6/eL/sx8W
i59sGfjbeH8/UkjECbpoa7N8oxNLlAyBa9/doppJlr99/QIDAQABo00wSzAJBgNV
HRMEAjAAMB0GA1UdDgQWBBQLddHKR8GYKwXSgqM6wQBquFAnBzAfBgNVHSMEGDAW
gBSqCfybhfkpALmjzGBhMjZ2gpmUOTANBgkqhkiG9w0BAQsFAAOCAQEACVNckUQE
mmpXnHxN3opUe6YCSABCYj50r5660veGCg3dCxeAPpKo/SFEXxyADB6ymaK1uzwJ
vHOJ0XUFe3Pcs3YhVl0BjnmwLxTEHyBAHZjpCP3Obr0JVBmqymElVJVt0PmaP+6K
kdx+CBltyNsC32sln3JYfelHYpMbTrzV9goyBhFMH/1O/VkP/VT4fcGTTGiV52xW
6ZBG/qm7BTfjVp9TpQZR5XJJJHoWIQToAb40gWomxsU9QQKJihE+RuUmxgN4/KNF
600NVNvNfe0mm+ENd1P6KhigRtP5/jCwYQukzEediKYfX/DlDewq0C2Rerev5nSg
kYAqs0VF02IF8g==
-----END CERTIFICATE-----
