Certificate:
    Data:
        Version: 3 (0x2)
        Serial Number: 2 (0x2)
        Signature Algorithm: sha256WithRSAEncryption
        Issuer: C=aa, ST=aa, L=aa, O=aa, OU=aa, CN=aa/emailAddress=aa
        Validity
            Not Before: Aug 28 14:39:40 2021 GMT
            Not After : Aug 28 14:39:40 2022 GMT
        Subject: C=aa, ST=aa, O=aa, OU=aa, CN=aa/emailAddress=aa
        Subject Public Key Info:
            Public Key Algorithm: rsaEncryption
                RSA Public-Key: (2048 bit)
                Modulus:
                    00:c1:38:19:e6:57:fa:51:7f:cb:a1:d3:b6:02:e1:
                    ba:d5:4a:e4:01:29:8b:cb:14:2c:96:ab:a1:ab:7c:
                    aa:48:1e:81:94:bf:e2:e4:73:40:4a:7b:ec:de:ab:
                    2b:85:a9:1c:13:bb:54:63:94:b1:0b:83:bc:cd:9d:
                    3f:54:32:be:16:e3:4c:79:b4:31:ac:4d:ce:6d:c9:
                    95:ec:1f:9f:bd:75:48:20:6c:f8:71:f2:1e:2d:78:
                    25:66:4b:26:f6:fd:57:4b:6e:17:58:bd:11:af:5c:
                    b5:b3:7c:17:3a:42:63:a9:16:42:e6:c6:02:24:0f:
                    82:ae:05:bc:c3:6a:82:4f:d0:e7:58:fe:8c:ca:b0:
                    9c:c7:39:34:9f:6a:b9:5d:d5:4f:29:c1:ed:2c:59:
                    5f:8d:d1:3b:9f:80:23:b0:4b:91:2b:57:ce:e4:f0:
                    6f:ae:2d:18:16:fe:88:58:2d:da:88:ea:c7:6b:53:
                    4c:95:26:d8:9d:49:fb:db:9e:82:a0:ca:a4:28:cd:
                    e6:b9:92:29:21:4d:e7:b3:09:d3:b6:72:33:5b:02:
                    74:f7:49:72:a8:93:34:7a:85:40:8d:d4:ea:46:73:
                    2e:10:c6:20:bf:20:15:1d:e9:c7:23:79:b4:c6:dd:
                    be:e1:74:92:be:16:26:5a:12:be:25:b3:64:e5:f7:
                    74:95
                Exponent: 65537 (0x10001)
        X509v3 extensions:
            X509v3 Basic Constraints: 
                CA:FALSE
            X509v3 Subject Key Identifier: 
                9C:BA:3A:37:3E:7E:15:B4:2D:9C:4A:0B:39:13:BD:65:1F:6A:63:C3
            X509v3 Authority Key Identifier: 
                keyid:FB:49:87:04:C7:78:BF:7C:BF:76:4B:4B:D7:AD:CD:2C:BB:44:EC:08

    Signature Algorithm: sha256WithRSAEncryption
         9f:55:d0:bd:c3:36:d8:39:c7:35:7f:b1:6d:48:28:21:52:b7:
         b9:3f:45:bd:0e:6d:7a:6b:40:46:2d:85:31:e6:09:6a:35:be:
         d1:a8:69:67:cb:56:0e:1c:4a:43:7a:e5:aa:a5:9a:51:0e:93:
         43:f6:ab:4c:08:7a:ff:7e:38:63:25:b9:bb:39:5a:0a:5a:99:
         af:bc:6e:88:89:03:f9:f7:61:b8:fd:44:5b:4a:b2:81:69:5e:
         b7:38:b2:60:81:34:ed:59:dc:f2:d6:cf:99:0a:9f:09:2c:3d:
         0d:6c:60:9b:25:52:9d:fe:fe:f2:a4:bc:88:31:a4:c0:aa:aa:
         f2:b6:6d:7f:9e:dd:b7:18:cd:86:72:5b:db:f1:91:b5:a2:a9:
         49:6f:50:8e:4a:7b:5e:31:b5:60:2c:3f:87:d2:a0:77:af:86:
         8b:43:84:f2:62:91:cc:b3:d5:94:00:b2:58:63:c4:c8:ca:4e:
         12:df:87:c8:a1:04:70:7f:b4:ba:ca:69:80:30:15:7d:d6:b4:
         c7:08:9f:31:ed:2d:b4:ff:91:7f:10:02:04:21:64:89:5e:a6:
         bc:a6:23:af:a7:a5:34:4f:7b:83:be:82:9c:bd:9d:09:bd:ad:
         49:cf:a7:24:5f:e3:d5:5d:ee:1c:1b:de:0e:f0:37:4c:5d:9a:
         24:40:b8:de
-----BEGIN CERTIFICATE-----
MIIDfTCCAmWgAwIBAgIBAjANBgkqhkiG9w0BAQsFADBhMQswCQYDVQQGEwJhYTEL
MAkGA1UECAwCYWExCzAJBgNVBAcMAmFhMQswCQYDVQQKDAJhYTELMAkGA1UECwwC
YWExCzAJBgNVBAMMAmFhMREwDwYJKoZIhvcNAQkBFgJhYTAeFw0yMTA4MjgxNDM5
NDBaFw0yMjA4MjgxNDM5NDBaMFQxCzAJBgNVBAYTAmFhMQswCQYDVQQIDAJhYTEL
MAkGA1UECgwCYWExCzAJBgNVBAsMAmFhMQswCQYDVQQDDAJhYTERMA8GCSqGSIb3
DQEJARYCYWEwggEiMA0GCSqGSIb3DQEBAQUAA4IBDwAwggEKAoIBAQDBOBnmV/pR
f8uh07YC4brVSuQBKYvLFCyWq6GrfKpIHoGUv+Lkc0BKe+zeqyuFqRwTu1RjlLEL
g7zNnT9UMr4W40x5tDGsTc5tyZXsH5+9dUggbPhx8h4teCVmSyb2/VdLbhdYvRGv
XLWzfBc6QmOpFkLmxgIkD4KuBbzDaoJP0OdY/ozKsJzHOTSfarld1U8pwe0sWV+N
0TufgCOwS5ErV87k8G+uLRgW/ohYLdqI6sdrU0yVJtidSfvbnoKgyqQozea5kikh
TeezCdO2cjNbAnT3SXKokzR6hUCN1OpGcy4QxiC/IBUd6ccjebTG3b7hdJK+FiZa
Er4ls2Tl93SVAgMBAAGjTTBLMAkGA1UdEwQCMAAwHQYDVR0OBBYEFJy6Ojc+fhW0
LZxKCzkTvWUfamPDMB8GA1UdIwQYMBaAFPtJhwTHeL98v3ZLS9etzSy7ROwIMA0G
CSqGSIb3DQEBCwUAA4IBAQCfVdC9wzbYOcc1f7FtSCghUre5P0W9Dm16a0BGLYUx
5glqNb7RqGlny1YOHEpDeuWqpZpRDpND9qtMCHr/fjhjJbm7OVoKWpmvvG6IiQP5
92G4/URbSrKBaV63OLJggTTtWdzy1s+ZCp8JLD0NbGCbJVKd/v7ypLyIMaTAqqry
tm1/nt23GM2Gclvb8ZG1oqlJb1COSnteMbVgLD+H0qB3r4aLQ4TyYpHMs9WUALJY
Y8TIyk4S34fIoQRwf7S6ymmAMBV91rTHCJ8x7S20/5F/EAIEIWSJXqa8piOvp6U0
T3uDvoKcvZ0Jva1Jz6ckX+PVXe4cG94O8DdMXZokQLje
-----END CERTIFICATE-----
