Certificate:
    Data:
        Version: 3 (0x2)
        Serial Number: 2 (0x2)
        Signature Algorithm: sha256WithRSAEncryption
        Issuer: C=br, ST=MG, L=barbacena, O=TSI, OU=radioWeb, CN=jose/emailAddress=josefelixduarte26@gmail.com
        Validity
            Not Before: Aug 30 18:37:57 2021 GMT
            Not After : Aug 30 18:37:57 2022 GMT
        Subject: C=br, ST=MG, O=TSI, OU=radioWeb, CN=jose/emailAddress=josefelixduarte26@gmail.com
        Subject Public Key Info:
            Public Key Algorithm: rsaEncryption
                RSA Public-Key: (2048 bit)
                Modulus:
                    00:f8:17:90:24:fe:19:bf:a9:1b:7b:24:3d:59:10:
                    fc:1a:da:f6:bd:3a:15:65:97:8f:ad:80:f6:be:7e:
                    30:ee:5a:55:d3:9d:96:25:7e:df:90:b4:e9:ba:87:
                    3e:ae:cb:b1:ad:21:5b:be:a8:a0:b0:21:7c:c0:2e:
                    35:4c:06:40:b5:33:3f:02:7a:75:08:3f:b0:69:dd:
                    88:7c:3c:53:63:d6:1a:44:77:e0:9d:41:ef:1a:46:
                    da:88:6e:b1:b5:3c:ce:c5:34:8d:38:5c:07:e9:92:
                    36:16:21:11:16:46:b4:66:36:41:92:00:80:2f:c7:
                    9a:0a:9e:f6:1e:e4:75:09:df:49:cc:17:f8:49:f8:
                    bb:64:0e:3f:3f:6f:5c:43:71:a6:c2:0f:bc:01:ff:
                    2d:4f:ad:f4:a9:09:2d:4c:bd:fc:45:fe:5d:80:5a:
                    d5:98:e8:dc:9e:6a:b9:0e:11:31:94:81:2d:e0:c2:
                    a1:bd:86:4e:9c:9e:b0:93:5c:20:d3:1e:18:5c:d1:
                    d3:2c:b2:c7:2a:c2:26:ca:d6:57:96:21:a2:e2:f1:
                    c3:a6:7a:09:6e:0c:b4:ae:9f:ff:4d:70:44:5b:79:
                    e3:2b:34:54:41:09:dc:51:28:80:38:31:61:5c:99:
                    b7:45:c8:8e:1c:d4:7f:e2:0d:07:ca:76:47:e5:92:
                    e6:9b
                Exponent: 65537 (0x10001)
        X509v3 extensions:
            X509v3 Basic Constraints: 
                CA:FALSE
            X509v3 Subject Key Identifier: 
                79:6F:4E:E6:D1:BD:C9:BF:7F:F0:E9:1F:2F:D8:58:D6:A6:12:A3:0B
            X509v3 Authority Key Identifier: 
                keyid:EC:49:91:F9:C3:B8:76:D9:39:88:3A:3E:62:F7:E1:F7:64:6B:55:10

    Signature Algorithm: sha256WithRSAEncryption
         7d:76:f8:26:ea:d0:62:0e:2a:81:ea:64:ff:7a:26:3e:ff:d7:
         77:a3:28:39:48:5f:d5:df:12:f1:59:ce:7f:81:38:a9:a1:74:
         99:75:fa:06:89:a7:f6:cc:ca:fb:2c:f5:09:f5:88:37:9e:03:
         62:b4:06:38:f9:4e:b0:77:79:d4:77:46:a0:e8:62:e5:27:44:
         2c:65:6e:22:20:1c:b0:e0:86:10:02:b1:c1:2a:e3:06:1b:be:
         f6:b0:cc:95:db:f1:93:70:22:67:03:cb:84:88:74:1a:ff:5e:
         12:d0:8c:83:d1:ae:29:37:25:70:69:4f:f6:e1:83:bc:8f:2e:
         3f:02:da:9d:5d:f7:f8:16:5d:77:89:c7:bd:19:70:a7:fd:bf:
         5c:08:e2:be:6b:ee:2e:2a:bb:8c:5a:37:c8:4b:b3:f6:46:d1:
         ca:3d:3b:b7:84:b7:d0:0f:5b:c6:d4:0a:60:87:5c:38:12:58:
         ac:60:58:c0:1e:56:b3:26:b9:d8:1d:95:36:8f:63:49:1a:e6:
         43:be:10:4c:4d:6d:16:74:91:bb:7d:ad:1d:6c:2f:94:6b:2a:
         5b:3d:52:c7:7a:ea:6f:7f:c7:25:63:57:be:dd:b3:88:df:a8:
         d4:59:79:d3:e1:05:ef:50:ee:f7:f0:7b:b6:1f:13:78:a0:a2:
         37:49:da:f4
-----BEGIN CERTIFICATE-----
MIIDyTCCArGgAwIBAgIBAjANBgkqhkiG9w0BAQsFADCBijELMAkGA1UEBhMCYnIx
CzAJBgNVBAgMAk1HMRIwEAYDVQQHDAliYXJiYWNlbmExDDAKBgNVBAoMA1RTSTER
MA8GA1UECwwIcmFkaW9XZWIxDTALBgNVBAMMBGpvc2UxKjAoBgkqhkiG9w0BCQEW
G2pvc2VmZWxpeGR1YXJ0ZTI2QGdtYWlsLmNvbTAeFw0yMTA4MzAxODM3NTdaFw0y
MjA4MzAxODM3NTdaMHYxCzAJBgNVBAYTAmJyMQswCQYDVQQIDAJNRzEMMAoGA1UE
CgwDVFNJMREwDwYDVQQLDAhyYWRpb1dlYjENMAsGA1UEAwwEam9zZTEqMCgGCSqG
SIb3DQEJARYbam9zZWZlbGl4ZHVhcnRlMjZAZ21haWwuY29tMIIBIjANBgkqhkiG
9w0BAQEFAAOCAQ8AMIIBCgKCAQEA+BeQJP4Zv6kbeyQ9WRD8Gtr2vToVZZePrYD2
vn4w7lpV052WJX7fkLTpuoc+rsuxrSFbvqigsCF8wC41TAZAtTM/Anp1CD+wad2I
fDxTY9YaRHfgnUHvGkbaiG6xtTzOxTSNOFwH6ZI2FiERFka0ZjZBkgCAL8eaCp72
HuR1Cd9JzBf4Sfi7ZA4/P29cQ3Gmwg+8Af8tT630qQktTL38Rf5dgFrVmOjcnmq5
DhExlIEt4MKhvYZOnJ6wk1wg0x4YXNHTLLLHKsImytZXliGi4vHDpnoJbgy0rp//
TXBEW3njKzRUQQncUSiAODFhXJm3RciOHNR/4g0HynZH5ZLmmwIDAQABo00wSzAJ
BgNVHRMEAjAAMB0GA1UdDgQWBBR5b07m0b3Jv3/w6R8v2FjWphKjCzAfBgNVHSME
GDAWgBTsSZH5w7h22TmIOj5i9+H3ZGtVEDANBgkqhkiG9w0BAQsFAAOCAQEAfXb4
JurQYg4qgepk/3omPv/Xd6MoOUhf1d8S8VnOf4E4qaF0mXX6Bomn9szK+yz1CfWI
N54DYrQGOPlOsHd51HdGoOhi5SdELGVuIiAcsOCGEAKxwSrjBhu+9rDMldvxk3Ai
ZwPLhIh0Gv9eEtCMg9GuKTclcGlP9uGDvI8uPwLanV33+BZdd4nHvRlwp/2/XAji
vmvuLiq7jFo3yEuz9kbRyj07t4S30A9bxtQKYIdcOBJYrGBYwB5Wsya52B2VNo9j
SRrmQ74QTE1tFnSRu32tHWwvlGsqWz1Sx3rqb3/HJWNXvt2ziN+o1Fl50+EF71Du
9/B7th8TeKCiN0na9A==
-----END CERTIFICATE-----
